; Function Attrs: mustprogress nounwind uwtable
define internal void @_ZN12_GLOBAL__N_117RISCVDisassemblerD2Ev(ptr noundef nonnull align 8 dereferenceable(48) initializes((0, 8)) %0) unnamed_addr #0 align 2 {
  store ptr getelementptr inbounds nuw inrange(-16, 48) (i8, ptr @_ZTVN12_GLOBAL__N_117RISCVDisassemblerE, i64 16), ptr %0, align 8
  %2 = getelementptr inbounds nuw i8, ptr %0, i64 40
  %3 = load ptr, ptr %2, align 8
  %.not.i = icmp eq ptr %3, null
  br i1 %.not.i, label %_ZNSt10unique_ptrIKN4llvm11MCInstrInfoESt14default_deleteIS2_EED2Ev.exit, label %_ZNKSt14default_deleteIKN4llvm11MCInstrInfoEEclEPS2_.exit.i

_ZNKSt14default_deleteIKN4llvm11MCInstrInfoEEclEPS2_.exit.i: ; preds = %1
  tail call void @_ZdlPvm(ptr noundef nonnull %3, i64 noundef 48) #12
  br label %_ZNSt10unique_ptrIKN4llvm11MCInstrInfoESt14default_deleteIS2_EED2Ev.exit

_ZNSt10unique_ptrIKN4llvm11MCInstrInfoESt14default_deleteIS2_EED2Ev.exit: ; preds = %1, %_ZNKSt14default_deleteIKN4llvm11MCInstrInfoEEclEPS2_.exit.i
  store ptr null, ptr %2, align 8
  tail call void @_ZN4llvm14MCDisassemblerD2Ev(ptr noundef nonnull align 8 dereferenceable(40) %0) #10
  ret void
}